target datalayout = "e-m:e-p270:32:32-p271:32:32-p272:64:64-i64:64-i128:128-f80:128-n8:16:32:64-S128"
target triple = "x86_64-pc-linux-gnu"

%"class.llvm::sampleprof::DefaultFunctionPruningStrategy" = type { %"class.llvm::sampleprof::FunctionPruningStrategy", %"class.std::vector" }
%"class.llvm::sampleprof::FunctionPruningStrategy" = type { ptr, ptr, i64 }
%"class.std::vector" = type { %"struct.std::_Vector_base" }
%"struct.std::_Vector_base" = type { %"struct.std::_Vector_base<std::pair<llvm::hash_code, const llvm::sampleprof::FunctionSamples *>, std::allocator<std::pair<llvm::hash_code, const llvm::sampleprof::FunctionSamples *>>>::_Vector_impl" }
%"struct.std::_Vector_base<std::pair<llvm::hash_code, const llvm::sampleprof::FunctionSamples *>, std::allocator<std::pair<llvm::hash_code, const llvm::sampleprof::FunctionSamples *>>>::_Vector_impl" = type { %"struct.std::_Vector_base<std::pair<llvm::hash_code, const llvm::sampleprof::FunctionSamples *>, std::allocator<std::pair<llvm::hash_code, const llvm::sampleprof::FunctionSamples *>>>::_Vector_impl_data" }
%"struct.std::_Vector_base<std::pair<llvm::hash_code, const llvm::sampleprof::FunctionSamples *>, std::allocator<std::pair<llvm::hash_code, const llvm::sampleprof::FunctionSamples *>>>::_Vector_impl_data" = type { ptr, ptr, ptr }

@_ZTVN4llvm10sampleprof23FunctionPruningStrategyE = linkonce_odr unnamed_addr constant { [5 x ptr] } { [5 x ptr] [ptr null, ptr null, ptr @_ZN4llvm10sampleprof23FunctionPruningStrategyD2Ev, ptr @_ZN4llvm10sampleprof23FunctionPruningStrategyD0Ev, ptr @__cxa_pure_virtual] }, comdat, align 8

; Function Attrs: mustprogress nounwind uwtable
define linkonce_odr hidden void @_ZNSt15__new_allocatorISt4pairIN4llvm9hash_codeEPKNS1_10sampleprof15FunctionSamplesEEEC2Ev(ptr noundef nonnull align 1 dereferenceable(1) %0) unnamed_addr #3 comdat align 2 {
  %2 = alloca ptr, align 8
  store ptr %0, ptr %2, align 8
  ret void
}

; Function Attrs: mustprogress nounwind uwtable
define linkonce_odr hidden void @_ZNSt12_Vector_baseISt4pairIN4llvm9hash_codeEPKNS1_10sampleprof15FunctionSamplesEESaIS7_EE17_Vector_impl_dataC2Ev(ptr noundef nonnull align 8 dereferenceable(24) %0) unnamed_addr #3 comdat align 2 {
  %2 = alloca ptr, align 8
  store ptr %0, ptr %2, align 8
  %3 = load ptr, ptr %2, align 8
  %4 = getelementptr inbounds nuw %"struct.std::_Vector_base<std::pair<llvm::hash_code, const llvm::sampleprof::FunctionSamples *>, std::allocator<std::pair<llvm::hash_code, const llvm::sampleprof::FunctionSamples *>>>::_Vector_impl_data", ptr %3, i32 0, i32 0
  store ptr null, ptr %4, align 8
  %5 = getelementptr inbounds nuw %"struct.std::_Vector_base<std::pair<llvm::hash_code, const llvm::sampleprof::FunctionSamples *>, std::allocator<std::pair<llvm::hash_code, const llvm::sampleprof::FunctionSamples *>>>::_Vector_impl_data", ptr %3, i32 0, i32 1
  store ptr null, ptr %5, align 8
  %6 = getelementptr inbounds nuw %"struct.std::_Vector_base<std::pair<llvm::hash_code, const llvm::sampleprof::FunctionSamples *>, std::allocator<std::pair<llvm::hash_code, const llvm::sampleprof::FunctionSamples *>>>::_Vector_impl_data", ptr %3, i32 0, i32 2
  store ptr null, ptr %6, align 8
  ret void
}

; Function Attrs: mustprogress nounwind uwtable
define linkonce_odr hidden void @_ZNSaISt4pairIN4llvm9hash_codeEPKNS0_10sampleprof15FunctionSamplesEEEC2Ev(ptr noundef nonnull align 1 dereferenceable(1) %0) unnamed_addr #3 comdat align 2 {
  %2 = alloca ptr, align 8
  store ptr %0, ptr %2, align 8
  %3 = load ptr, ptr %2, align 8
  call void @_ZNSt15__new_allocatorISt4pairIN4llvm9hash_codeEPKNS1_10sampleprof15FunctionSamplesEEEC2Ev(ptr noundef nonnull align 1 dereferenceable(1) %3) #4
  ret void
}

; Function Attrs: mustprogress nounwind uwtable
define linkonce_odr hidden void @_ZNSt12_Vector_baseISt4pairIN4llvm9hash_codeEPKNS1_10sampleprof15FunctionSamplesEESaIS7_EE12_Vector_implC2Ev(ptr noundef nonnull align 8 dereferenceable(24) %0) unnamed_addr #3 comdat align 2 {
  %2 = alloca ptr, align 8
  store ptr %0, ptr %2, align 8
  %3 = load ptr, ptr %2, align 8
  call void @_ZNSaISt4pairIN4llvm9hash_codeEPKNS0_10sampleprof15FunctionSamplesEEEC2Ev(ptr noundef nonnull align 1 dereferenceable(1) %3) #4
  call void @_ZNSt12_Vector_baseISt4pairIN4llvm9hash_codeEPKNS1_10sampleprof15FunctionSamplesEESaIS7_EE17_Vector_impl_dataC2Ev(ptr noundef nonnull align 8 dereferenceable(24) %3) #4
  ret void
}

; Function Attrs: mustprogress nounwind uwtable
define linkonce_odr hidden void @_ZNSt12_Vector_baseISt4pairIN4llvm9hash_codeEPKNS1_10sampleprof15FunctionSamplesEESaIS7_EEC2Ev(ptr noundef nonnull align 8 dereferenceable(24) %0) unnamed_addr #3 comdat align 2 {
  %2 = alloca ptr, align 8
  store ptr %0, ptr %2, align 8
  %3 = load ptr, ptr %2, align 8
  %4 = getelementptr inbounds nuw %"struct.std::_Vector_base", ptr %3, i32 0, i32 0
  call void @_ZNSt12_Vector_baseISt4pairIN4llvm9hash_codeEPKNS1_10sampleprof15FunctionSamplesEESaIS7_EE12_Vector_implC2Ev(ptr noundef nonnull align 8 dereferenceable(24) %4) #4
  ret void
}

; Function Attrs: mustprogress nounwind uwtable
define linkonce_odr hidden void @_ZNSt6vectorISt4pairIN4llvm9hash_codeEPKNS1_10sampleprof15FunctionSamplesEESaIS7_EEC2Ev(ptr noundef nonnull align 8 dereferenceable(24) %0) unnamed_addr #3 comdat align 2 {
  %2 = alloca ptr, align 8
  store ptr %0, ptr %2, align 8
  %3 = load ptr, ptr %2, align 8
  call void @_ZNSt12_Vector_baseISt4pairIN4llvm9hash_codeEPKNS1_10sampleprof15FunctionSamplesEESaIS7_EEC2Ev(ptr noundef nonnull align 8 dereferenceable(24) %3) #4
  ret void
}

; Function Attrs: mustprogress nounwind uwtable
define linkonce_odr hidden void @_ZN4llvm10sampleprof23FunctionPruningStrategyC2ERNS0_16SampleProfileMapEm(ptr noundef nonnull align 8 dereferenceable(24) %0, ptr noundef nonnull align 8 dereferenceable(56) %1, i64 noundef %2) unnamed_addr #3 comdat align 2 {
  %4 = alloca ptr, align 8
  %5 = alloca ptr, align 8
  %6 = alloca i64, align 8
  store ptr %0, ptr %4, align 8
  store ptr %1, ptr %5, align 8
  store i64 %2, ptr %6, align 8
  %7 = load ptr, ptr %4, align 8
  store ptr getelementptr inbounds inrange(-16, 24) ({ [5 x ptr] }, ptr @_ZTVN4llvm10sampleprof23FunctionPruningStrategyE, i32 0, i32 0, i32 2), ptr %7, align 8
  %8 = getelementptr inbounds nuw %"class.llvm::sampleprof::FunctionPruningStrategy", ptr %7, i32 0, i32 1
  %9 = load ptr, ptr %5, align 8
  store ptr %9, ptr %8, align 8
  %10 = getelementptr inbounds nuw %"class.llvm::sampleprof::FunctionPruningStrategy", ptr %7, i32 0, i32 2
  %11 = load i64, ptr %6, align 8
  store i64 %11, ptr %10, align 8
  ret void
}

; Function Attrs: mustprogress nounwind uwtable
define dso_local void @_ZN4llvm10sampleprof30DefaultFunctionPruningStrategyC2ERNS0_16SampleProfileMapEm(ptr noundef nonnull align 8 dereferenceable(48) %0, ptr noundef nonnull align 8 dereferenceable(56) %1, i64 noundef %2) unnamed_addr #3 align 2 {
  %4 = alloca ptr, align 8
  %5 = alloca ptr, align 8
  %6 = alloca i64, align 8
  store ptr %0, ptr %4, align 8
  store ptr %1, ptr %5, align 8
  store i64 %2, ptr %6, align 8
  %7 = load ptr, ptr %4, align 8
  %8 = load ptr, ptr %5, align 8
  %9 = load i64, ptr %6, align 8
  call void @_ZN4llvm10sampleprof23FunctionPruningStrategyC2ERNS0_16SampleProfileMapEm(ptr noundef nonnull align 8 dereferenceable(24) %7, ptr noundef nonnull align 8 dereferenceable(56) %8, i64 noundef %9)
  store ptr getelementptr inbounds inrange(-16, 24) ({ [5 x ptr] }, ptr @_ZTVN4llvm10sampleprof30DefaultFunctionPruningStrategyE, i32 0, i32 0, i32 2), ptr %7, align 8
  %10 = getelementptr inbounds nuw %"class.llvm::sampleprof::DefaultFunctionPruningStrategy", ptr %7, i32 0, i32 1
  call void @_ZNSt6vectorISt4pairIN4llvm9hash_codeEPKNS1_10sampleprof15FunctionSamplesEESaIS7_EEC2Ev(ptr noundef nonnull align 8 dereferenceable(24) %10) #4
  %11 = load ptr, ptr %5, align 8
  %12 = getelementptr inbounds nuw %"class.llvm::sampleprof::DefaultFunctionPruningStrategy", ptr %7, i32 0, i32 1
  call void @_ZN4llvm10sampleprof16sortFuncProfilesERKNS0_16SampleProfileMapERSt6vectorISt4pairINS_9hash_codeEPKNS0_15FunctionSamplesEESaISA_EE(ptr noundef nonnull align 8 dereferenceable(56) %11, ptr noundef nonnull align 8 dereferenceable(24) %12)
  ret void
}