; Function Attrs: mustprogress nounwind uwtable
define dso_local void @_ZN4llvm10sampleprof30DefaultFunctionPruningStrategyC2ERNS0_16SampleProfileMapEm(ptr noundef nonnull align 8 dereferenceable(48) %0, ptr noundef nonnull align 8 dereferenceable(56) %1, i64 noundef %2) unnamed_addr #2 align 2 {
  %4 = getelementptr inbounds nuw i8, ptr %0, i64 8
  store ptr %1, ptr %4, align 8
  %5 = getelementptr inbounds nuw i8, ptr %0, i64 16
  store i64 %2, ptr %5, align 8
  store ptr getelementptr inbounds inrange(-16, 24) (i8, ptr @_ZTVN4llvm10sampleprof30DefaultFunctionPruningStrategyE, i64 16), ptr %0, align 8
  %6 = getelementptr inbounds nuw i8, ptr %0, i64 24
  tail call void @llvm.memset.p0.i64(ptr noundef nonnull align 8 dereferenceable(24) %6, i8 0, i64 24, i1 false)
  tail call void @_ZN4llvm10sampleprof16sortFuncProfilesERKNS0_16SampleProfileMapERSt6vectorISt4pairINS_9hash_codeEPKNS0_15FunctionSamplesEESaISA_EE(ptr noundef nonnull align 8 dereferenceable(56) %1, ptr noundef nonnull align 8 dereferenceable(24) %6) #22
  ret void
}